target datalayout = "e-m:e-p270:32:32-p271:32:32-p272:64:64-i64:64-i128:128-f80:128-n8:16:32:64-S128"
target triple = "x86_64-pc-linux-gnu"

%union.pthread_mutex_t = type { %struct.__pthread_mutex_s }
%struct.__pthread_mutex_s = type { i32, i32, i32, i32, i32, i16, i16, %struct.__pthread_internal_list }
%struct.__pthread_internal_list = type { ptr, ptr }
%struct.job_record = type { i32, ptr, ptr, ptr, ptr, i16, i32, i32, i32, ptr, i32, ptr, ptr, i16, ptr, double, i64, ptr, ptr, ptr, ptr, ptr, ptr, i32, ptr, i32, i64, i64, i32, i32, ptr, i16, i64, i64, i8, i32, ptr, ptr, ptr, ptr, ptr, ptr, ptr, ptr, i32, ptr, ptr, i32, ptr, i32, ptr, i32, ptr, i32, ptr, ptr, ptr, ptr, ptr, ptr, i32, i16, i64, ptr, ptr, ptr, ptr, %struct.acct_policy_limit_set_t, i16, ptr, ptr, ptr, ptr, ptr, i32, ptr, ptr, ptr, ptr, ptr, i32, i32, ptr, ptr, ptr, i16, ptr, ptr, i8, ptr, ptr, i64, i64, i8, i32, i32, i8, i32, ptr, i32, i64, i32, ptr, ptr, ptr, i8, i16, i64, i32, ptr, ptr, ptr, ptr, ptr, i16, i32, ptr, ptr, ptr, ptr, i32, ptr, i32, i16, i64, ptr, i32, i32, ptr, i64, ptr, ptr, i64, i32, i32, i64, i32, i32, ptr, ptr, ptr, ptr, ptr, ptr, ptr, ptr, ptr, ptr, ptr, ptr, i32, ptr, i16, i16, i16, i16, ptr, i32, i32, i8, i64 }
%struct.acct_policy_limit_set_t = type { i16, i16, ptr }

@job_step_ptr = dso_local global ptr null, align 8
@time_limit_thread_shutdown = dso_local global i8 0, align 1
@.str.15 = private unnamed_addr constant [29 x i8] c"%s: pthread_mutex_lock(): %m\00", align 1
@.str.19 = private unnamed_addr constant [31 x i8] c"%s: pthread_mutex_unlock(): %m\00", align 1
@stepmgr_mutex = external global %union.pthread_mutex_t, align 8
@__func__._step_time_limit_thread = private unnamed_addr constant [24 x i8] c"_step_time_limit_thread\00", align 1

; Function Attrs: nounwind uwtable
define internal ptr @_step_time_limit_thread(ptr noundef %0) #0 {
  %2 = alloca ptr, align 8
  %3 = alloca i64, align 8
  %4 = alloca i32, align 4
  %5 = alloca i32, align 4
  store ptr %0, ptr %2, align 8
  call void @llvm.lifetime.start.p0(i64 8, ptr %3) #9
  br label %6

6:                                                ; preds = %35, %1
  %7 = load i8, ptr @time_limit_thread_shutdown, align 1, !range !8, !noundef !9
  %8 = trunc i8 %7 to i1
  %9 = xor i1 %8, true
  br i1 %9, label %10, label %37

10:                                               ; preds = %6
  %11 = call i64 @time(ptr noundef null) #9
  store i64 %11, ptr %3, align 8
  br label %12

12:                                               ; preds = %10
  call void @llvm.lifetime.start.p0(i64 4, ptr %4) #9
  %13 = call i32 @pthread_mutex_lock(ptr noundef @stepmgr_mutex) #9
  store i32 %13, ptr %4, align 4
  %14 = load i32, ptr %4, align 4
  %15 = icmp ne i32 %14, 0
  br i1 %15, label %16, label %19

16:                                               ; preds = %12
  %17 = load i32, ptr %4, align 4
  %18 = call ptr @__errno_location() #10
  store i32 %17, ptr %18, align 4
  call void (ptr, ...) @fatal_abort(ptr noundef @.str.15, ptr noundef @__func__._step_time_limit_thread) #11
  unreachable

19:                                               ; preds = %12
  call void @llvm.lifetime.end.p0(i64 4, ptr %4) #9
  br label %20

20:                                               ; preds = %19
  br label %21

21:                                               ; preds = %20
  %22 = load ptr, ptr @job_step_ptr, align 8
  %23 = getelementptr inbounds nuw %struct.job_record, ptr %22, i32 0, i32 128
  %24 = load ptr, ptr %23, align 8
  %25 = call i32 @list_for_each(ptr noundef %24, ptr noundef @check_job_step_time_limit, ptr noundef %3)
  br label %26

26:                                               ; preds = %21
  call void @llvm.lifetime.start.p0(i64 4, ptr %5) #9
  %27 = call i32 @pthread_mutex_unlock(ptr noundef @stepmgr_mutex) #9
  store i32 %27, ptr %5, align 4
  %28 = load i32, ptr %5, align 4
  %29 = icmp ne i32 %28, 0
  br i1 %29, label %30, label %33

30:                                               ; preds = %26
  %31 = load i32, ptr %5, align 4
  %32 = call ptr @__errno_location() #10
  store i32 %31, ptr %32, align 4
  call void (ptr, ...) @fatal_abort(ptr noundef @.str.19, ptr noundef @__func__._step_time_limit_thread) #11
  unreachable

33:                                               ; preds = %26
  call void @llvm.lifetime.end.p0(i64 4, ptr %5) #9
  br label %34

34:                                               ; preds = %33
  br label %35

35:                                               ; preds = %34
  %36 = call i32 @sleep(i32 noundef 1)
  br label %6, !llvm.loop !29

37:                                               ; preds = %6
  call void @llvm.lifetime.end.p0(i64 8, ptr %3) #9
  ret ptr null
}