; Function Attrs: nounwind uwtable
define internal noalias noundef ptr @_step_time_limit_thread(ptr readnone captures(none) %0) #1 {
  %2 = alloca i64, align 8
  call void @llvm.lifetime.start.p0(i64 8, ptr nonnull %2) #15
  %3 = load i8, ptr @time_limit_thread_shutdown, align 1, !range !24, !noundef !25
  %4 = trunc nuw i8 %3 to i1
  br i1 %4, label %._crit_edge, label %.lr.ph

.lr.ph:                                           ; preds = %1, %17
  %5 = call i64 @time(ptr noundef null) #15
  store i64 %5, ptr %2, align 8
  %6 = call i32 @pthread_mutex_lock(ptr noundef nonnull @stepmgr_mutex) #15
  %.not = icmp eq i32 %6, 0
  br i1 %.not, label %9, label %7

7:                                                ; preds = %.lr.ph
  %8 = tail call ptr @__errno_location() #16
  store i32 %6, ptr %8, align 4
  call void (ptr, ...) @fatal_abort(ptr noundef nonnull @.str.15, ptr noundef nonnull @__func__._step_time_limit_thread) #17
  unreachable

9:                                                ; preds = %.lr.ph
  %10 = load ptr, ptr @job_step_ptr, align 8
  %11 = getelementptr inbounds nuw i8, ptr %10, i64 936
  %12 = load ptr, ptr %11, align 8
  %13 = call i32 @list_for_each(ptr noundef %12, ptr noundef nonnull @check_job_step_time_limit, ptr noundef nonnull %2) #15
  %14 = call i32 @pthread_mutex_unlock(ptr noundef nonnull @stepmgr_mutex) #15
  %.not5 = icmp eq i32 %14, 0
  br i1 %.not5, label %17, label %15

15:                                               ; preds = %9
  %16 = tail call ptr @__errno_location() #16
  store i32 %14, ptr %16, align 4
  call void (ptr, ...) @fatal_abort(ptr noundef nonnull @.str.19, ptr noundef nonnull @__func__._step_time_limit_thread) #17
  unreachable

17:                                               ; preds = %9
  %18 = call i32 @sleep(i32 noundef 1) #15
  %19 = load i8, ptr @time_limit_thread_shutdown, align 1, !range !24, !noundef !25
  %20 = trunc nuw i8 %19 to i1
  br i1 %20, label %._crit_edge, label %.lr.ph, !llvm.loop !29

._crit_edge:                                      ; preds = %17, %1
  call void @llvm.lifetime.end.p0(i64 8, ptr nonnull %2) #15
  ret ptr null
}